; Function Attrs: mustprogress uwtable
define void @_ZN6icu_756number4impl15LongNameHandler18getUnitDisplayNameERKNS_6LocaleERKNS_11MeasureUnitE16UNumberUnitWidthR10UErrorCode(ptr noalias sret(%"class.icu_75::UnicodeString") align 8 %agg.result, ptr nocapture noundef nonnull readonly align 8 dereferenceable(217) %loc, ptr noundef nonnull align 8 dereferenceable(19) %unit, i32 noundef %width, ptr noundef nonnull align 4 dereferenceable(4) %status) local_unnamed_addr #1 align 2 personality ptr @__gxx_personality_v0 {
entry:
  %width.addr = alloca i32, align 4
  %simpleFormats = alloca [11 x %"class.icu_75::UnicodeString"], align 16
  store i32 %width, ptr %width.addr, align 4
  %0 = load i32, ptr %status, align 4
  %cmp.i = icmp slt i32 %0, 1
  br i1 %cmp.i, label %invoke.cont, label %if.then

if.then:                                          ; preds = %entry
  store ptr getelementptr inbounds ({ [13 x ptr] }, ptr @_ZTVN6icu_7513UnicodeStringE, i64 0, i32 0, i64 2), ptr %agg.result, align 8, !alias.scope !54
  %fUnion2.i.i = getelementptr inbounds i8, ptr %agg.result, i64 8
  store i16 2, ptr %fUnion2.i.i, align 8, !alias.scope !54
  invoke void @_ZN6icu_7513UnicodeString10setToBogusEv(ptr noundef nonnull align 8 dereferenceable(64) %agg.result)
          to label %return unwind label %lpad.i

common.resume:                                    ; preds = %arraydestroy.body12, %lpad.i
  %common.resume.op = phi { ptr, i32 } [ %1, %lpad.i ], [ %2, %arraydestroy.body12 ]
  resume { ptr, i32 } %common.resume.op

lpad.i:                                           ; preds = %if.then
  %1 = landingpad { ptr, i32 }
          cleanup
  tail call void @_ZN6icu_7513UnicodeStringD1Ev(ptr noundef nonnull align 8 dereferenceable(64) %agg.result) #18
  br label %common.resume

invoke.cont:                                      ; preds = %entry, %invoke.cont
  %arrayctor.cur.idx = phi i64 [ %arrayctor.cur.add, %invoke.cont ], [ 0, %entry ]
  %arrayctor.cur.ptr = getelementptr inbounds i8, ptr %simpleFormats, i64 %arrayctor.cur.idx
  store ptr getelementptr inbounds ({ [13 x ptr] }, ptr @_ZTVN6icu_7513UnicodeStringE, i64 0, i32 0, i64 2), ptr %arrayctor.cur.ptr, align 16
  %fUnion2.i = getelementptr inbounds i8, ptr %arrayctor.cur.ptr, i64 8
  store i16 2, ptr %fUnion2.i, align 8
  %arrayctor.cur.add = add nuw nsw i64 %arrayctor.cur.idx, 64
  %arrayctor.done = icmp eq i64 %arrayctor.cur.add, 704
  br i1 %arrayctor.done, label %arrayctor.cont, label %invoke.cont

arrayctor.cont:                                   ; preds = %invoke.cont
  %arrayctor.end = getelementptr inbounds i8, ptr %simpleFormats, i64 704
  invoke fastcc void @_ZN12_GLOBAL__N_114getMeasureDataERKN6icu_756LocaleERKNS0_11MeasureUnitERK16UNumberUnitWidthPKcPNS0_13UnicodeStringER10UErrorCode(ptr noundef nonnull align 8 dereferenceable(217) %loc, ptr noundef nonnull align 8 dereferenceable(19) %unit, ptr noundef nonnull align 4 dereferenceable(4) %width.addr, ptr noundef nonnull @.str, ptr noundef nonnull %simpleFormats, ptr noundef nonnull align 4 dereferenceable(4) %status)
          to label %invoke.cont3 unwind label %lpad2

invoke.cont3:                                     ; preds = %arrayctor.cont
  %arrayidx = getelementptr inbounds i8, ptr %simpleFormats, i64 512
  invoke void @_ZN6icu_7513UnicodeStringC1ERKS0_(ptr noundef nonnull align 8 dereferenceable(64) %agg.result, ptr noundef nonnull align 8 dereferenceable(64) %arrayidx)
          to label %arraydestroy.body6 unwind label %lpad2

lpad2:                                            ; preds = %invoke.cont3, %arrayctor.cont
  %2 = landingpad { ptr, i32 }
          cleanup
  br label %arraydestroy.body12

arraydestroy.body6:                               ; preds = %invoke.cont3, %arraydestroy.body6
  %arraydestroy.elementPast7 = phi ptr [ %arraydestroy.element8, %arraydestroy.body6 ], [ %arrayctor.end, %invoke.cont3 ]
  %arraydestroy.element8 = getelementptr inbounds i8, ptr %arraydestroy.elementPast7, i64 -64
  call void @_ZN6icu_7513UnicodeStringD1Ev(ptr noundef nonnull align 8 dereferenceable(64) %arraydestroy.element8) #18
  %arraydestroy.done9 = icmp eq ptr %arraydestroy.element8, %simpleFormats
  br i1 %arraydestroy.done9, label %return, label %arraydestroy.body6

arraydestroy.body12:                              ; preds = %arraydestroy.body12, %lpad2
  %arraydestroy.elementPast13 = phi ptr [ %arrayctor.end, %lpad2 ], [ %arraydestroy.element14, %arraydestroy.body12 ]
  %arraydestroy.element14 = getelementptr inbounds i8, ptr %arraydestroy.elementPast13, i64 -64
  call void @_ZN6icu_7513UnicodeStringD1Ev(ptr noundef nonnull align 8 dereferenceable(64) %arraydestroy.element14) #18
  %arraydestroy.done15 = icmp eq ptr %arraydestroy.element14, %simpleFormats
  br i1 %arraydestroy.done15, label %common.resume, label %arraydestroy.body12

return:                                           ; preds = %arraydestroy.body6, %if.then
  ret void
}